target datalayout = "e-m:e-p270:32:32-p271:32:32-p272:64:64-i64:64-i128:128-f80:128-n8:16:32:64-S128"
target triple = "x86_64-pc-linux-gnu"

%struct.CRYPTO_REF_COUNT = type { i32 }
%struct.cert_st = type { ptr, ptr, ptr, i32, i32, ptr, i64, ptr, i64, ptr, i64, ptr, i64, ptr, ptr, ptr, ptr, %struct.custom_ext_methods, ptr, i32, ptr, ptr, %struct.CRYPTO_REF_COUNT }
%struct.custom_ext_methods = type { ptr, i64 }
%struct.cert_pkey_st = type { ptr, ptr, ptr, ptr, i64 }

@.str = private unnamed_addr constant [25 x i8] c"../openssl/ssl/ssl_rsa.c\00", align 1
@__func__.ssl_set_cert = private unnamed_addr constant [13 x i8] c"ssl_set_cert\00", align 1

; Function Attrs: nounwind uwtable
define internal i32 @ssl_set_cert(ptr noundef %0, ptr noundef %1, ptr noundef %2) #0 {
  %4 = alloca i32, align 4
  %5 = alloca ptr, align 8
  %6 = alloca ptr, align 8
  %7 = alloca ptr, align 8
  %8 = alloca ptr, align 8
  %9 = alloca i64, align 8
  %10 = alloca i32, align 4
  store ptr %0, ptr %5, align 8, !tbaa !75
  store ptr %1, ptr %6, align 8, !tbaa !8
  store ptr %2, ptr %7, align 8, !tbaa !76
  call void @llvm.lifetime.start.p0(i64 8, ptr %8) #6
  call void @llvm.lifetime.start.p0(i64 8, ptr %9) #6
  %11 = load ptr, ptr %6, align 8, !tbaa !8
  %12 = call ptr @X509_get0_pubkey(ptr noundef %11)
  store ptr %12, ptr %8, align 8, !tbaa !77
  %13 = load ptr, ptr %8, align 8, !tbaa !77
  %14 = icmp eq ptr %13, null
  br i1 %14, label %15, label %16

15:                                               ; preds = %3
  call void @ERR_new()
  call void @ERR_set_debug(ptr noundef @.str, i32 noundef 263, ptr noundef @__func__.ssl_set_cert)
  call void (i32, i32, ptr, ...) @ERR_set_error(i32 noundef 20, i32 noundef 268, ptr noundef null)
  store i32 0, ptr %4, align 4
  store i32 1, ptr %10, align 4
  br label %98

16:                                               ; preds = %3
  %17 = load ptr, ptr %8, align 8, !tbaa !77
  %18 = load ptr, ptr %7, align 8, !tbaa !76
  %19 = call ptr @ssl_cert_lookup_by_pkey(ptr noundef %17, ptr noundef %9, ptr noundef %18)
  %20 = icmp eq ptr %19, null
  br i1 %20, label %21, label %22

21:                                               ; preds = %16
  call void @ERR_new()
  call void @ERR_set_debug(ptr noundef @.str, i32 noundef 268, ptr noundef @__func__.ssl_set_cert)
  call void (i32, i32, ptr, ...) @ERR_set_error(i32 noundef 20, i32 noundef 247, ptr noundef null)
  store i32 0, ptr %4, align 4
  store i32 1, ptr %10, align 4
  br label %98

22:                                               ; preds = %16
  %23 = load i64, ptr %9, align 8, !tbaa !78
  %24 = icmp eq i64 %23, 3
  br i1 %24, label %25, label %30

25:                                               ; preds = %22
  %26 = load ptr, ptr %8, align 8, !tbaa !77
  %27 = call i32 @EVP_PKEY_can_sign(ptr noundef %26)
  %28 = icmp ne i32 %27, 0
  br i1 %28, label %30, label %29

29:                                               ; preds = %25
  call void @ERR_new()
  call void @ERR_set_debug(ptr noundef @.str, i32 noundef 273, ptr noundef @__func__.ssl_set_cert)
  call void (i32, i32, ptr, ...) @ERR_set_error(i32 noundef 20, i32 noundef 318, ptr noundef null)
  store i32 0, ptr %4, align 4
  store i32 1, ptr %10, align 4
  br label %98

30:                                               ; preds = %25, %22
  %31 = load ptr, ptr %5, align 8, !tbaa !75
  %32 = getelementptr inbounds nuw %struct.cert_st, ptr %31, i32 0, i32 5
  %33 = load ptr, ptr %32, align 8, !tbaa !79
  %34 = load i64, ptr %9, align 8, !tbaa !78
  %35 = getelementptr inbounds nuw %struct.cert_pkey_st, ptr %33, i64 %34
  %36 = getelementptr inbounds nuw %struct.cert_pkey_st, ptr %35, i32 0, i32 1
  %37 = load ptr, ptr %36, align 8, !tbaa !83
  %38 = icmp ne ptr %37, null
  br i1 %38, label %39, label %74

39:                                               ; preds = %30
  %40 = load ptr, ptr %8, align 8, !tbaa !77
  %41 = load ptr, ptr %5, align 8, !tbaa !75
  %42 = getelementptr inbounds nuw %struct.cert_st, ptr %41, i32 0, i32 5
  %43 = load ptr, ptr %42, align 8, !tbaa !79
  %44 = load i64, ptr %9, align 8, !tbaa !78
  %45 = getelementptr inbounds nuw %struct.cert_pkey_st, ptr %43, i64 %44
  %46 = getelementptr inbounds nuw %struct.cert_pkey_st, ptr %45, i32 0, i32 1
  %47 = load ptr, ptr %46, align 8, !tbaa !83
  %48 = call i32 @EVP_PKEY_copy_parameters(ptr noundef %40, ptr noundef %47)
  call void @ERR_clear_error()
  %49 = load ptr, ptr %6, align 8, !tbaa !8
  %50 = load ptr, ptr %5, align 8, !tbaa !75
  %51 = getelementptr inbounds nuw %struct.cert_st, ptr %50, i32 0, i32 5
  %52 = load ptr, ptr %51, align 8, !tbaa !79
  %53 = load i64, ptr %9, align 8, !tbaa !78
  %54 = getelementptr inbounds nuw %struct.cert_pkey_st, ptr %52, i64 %53
  %55 = getelementptr inbounds nuw %struct.cert_pkey_st, ptr %54, i32 0, i32 1
  %56 = load ptr, ptr %55, align 8, !tbaa !83
  %57 = call i32 @X509_check_private_key(ptr noundef %49, ptr noundef %56)
  %58 = icmp ne i32 %57, 0
  br i1 %58, label %73, label %59

59:                                               ; preds = %39
  %60 = load ptr, ptr %5, align 8, !tbaa !75
  %61 = getelementptr inbounds nuw %struct.cert_st, ptr %60, i32 0, i32 5
  %62 = load ptr, ptr %61, align 8, !tbaa !79
  %63 = load i64, ptr %9, align 8, !tbaa !78
  %64 = getelementptr inbounds nuw %struct.cert_pkey_st, ptr %62, i64 %63
  %65 = getelementptr inbounds nuw %struct.cert_pkey_st, ptr %64, i32 0, i32 1
  %66 = load ptr, ptr %65, align 8, !tbaa !83
  call void @EVP_PKEY_free(ptr noundef %66)
  %67 = load ptr, ptr %5, align 8, !tbaa !75
  %68 = getelementptr inbounds nuw %struct.cert_st, ptr %67, i32 0, i32 5
  %69 = load ptr, ptr %68, align 8, !tbaa !79
  %70 = load i64, ptr %9, align 8, !tbaa !78
  %71 = getelementptr inbounds nuw %struct.cert_pkey_st, ptr %69, i64 %70
  %72 = getelementptr inbounds nuw %struct.cert_pkey_st, ptr %71, i32 0, i32 1
  store ptr null, ptr %72, align 8, !tbaa !83
  call void @ERR_clear_error()
  br label %73

73:                                               ; preds = %59, %39
  br label %74

74:                                               ; preds = %73, %30
  %75 = load ptr, ptr %5, align 8, !tbaa !75
  %76 = getelementptr inbounds nuw %struct.cert_st, ptr %75, i32 0, i32 5
  %77 = load ptr, ptr %76, align 8, !tbaa !79
  %78 = load i64, ptr %9, align 8, !tbaa !78
  %79 = getelementptr inbounds nuw %struct.cert_pkey_st, ptr %77, i64 %78
  %80 = getelementptr inbounds nuw %struct.cert_pkey_st, ptr %79, i32 0, i32 0
  %81 = load ptr, ptr %80, align 8, !tbaa !85
  call void @X509_free(ptr noundef %81)
  %82 = load ptr, ptr %6, align 8, !tbaa !8
  %83 = call i32 @X509_up_ref(ptr noundef %82)
  %84 = load ptr, ptr %6, align 8, !tbaa !8
  %85 = load ptr, ptr %5, align 8, !tbaa !75
  %86 = getelementptr inbounds nuw %struct.cert_st, ptr %85, i32 0, i32 5
  %87 = load ptr, ptr %86, align 8, !tbaa !79
  %88 = load i64, ptr %9, align 8, !tbaa !78
  %89 = getelementptr inbounds nuw %struct.cert_pkey_st, ptr %87, i64 %88
  %90 = getelementptr inbounds nuw %struct.cert_pkey_st, ptr %89, i32 0, i32 0
  store ptr %84, ptr %90, align 8, !tbaa !85
  %91 = load ptr, ptr %5, align 8, !tbaa !75
  %92 = getelementptr inbounds nuw %struct.cert_st, ptr %91, i32 0, i32 5
  %93 = load ptr, ptr %92, align 8, !tbaa !79
  %94 = load i64, ptr %9, align 8, !tbaa !78
  %95 = getelementptr inbounds nuw %struct.cert_pkey_st, ptr %93, i64 %94
  %96 = load ptr, ptr %5, align 8, !tbaa !75
  %97 = getelementptr inbounds nuw %struct.cert_st, ptr %96, i32 0, i32 0
  store ptr %95, ptr %97, align 8, !tbaa !86
  store i32 1, ptr %4, align 4
  store i32 1, ptr %10, align 4
  br label %98

98:                                               ; preds = %74, %29, %21, %15
  call void @llvm.lifetime.end.p0(i64 8, ptr %9) #6
  call void @llvm.lifetime.end.p0(i64 8, ptr %8) #6
  %99 = load i32, ptr %4, align 4
  ret i32 %99
}