; Function Attrs: nounwind uwtable
define internal fastcc range(i32 0, 2) i32 @ssl_set_cert(ptr noundef captures(none) %0, ptr noundef nonnull %1, ptr noundef %2) unnamed_addr #0 {
  %4 = alloca i64, align 8
  call void @llvm.lifetime.start.p0(i64 8, ptr nonnull %4) #6
  %5 = tail call ptr @X509_get0_pubkey(ptr noundef nonnull %1) #6
  %6 = icmp eq ptr %5, null
  br i1 %6, label %7, label %8

7:                                                ; preds = %3
  tail call void @ERR_new() #6
  tail call void @ERR_set_debug(ptr noundef nonnull @.str, i32 noundef 263, ptr noundef nonnull @__func__.ssl_set_cert) #6
  tail call void (i32, i32, ptr, ...) @ERR_set_error(i32 noundef 20, i32 noundef 268, ptr noundef null) #6
  br label %46

8:                                                ; preds = %3
  %9 = call ptr @ssl_cert_lookup_by_pkey(ptr noundef nonnull %5, ptr noundef nonnull %4, ptr noundef %2) #6
  %10 = icmp eq ptr %9, null
  br i1 %10, label %11, label %12

11:                                               ; preds = %8
  call void @ERR_new() #6
  call void @ERR_set_debug(ptr noundef nonnull @.str, i32 noundef 268, ptr noundef nonnull @__func__.ssl_set_cert) #6
  call void (i32, i32, ptr, ...) @ERR_set_error(i32 noundef 20, i32 noundef 247, ptr noundef null) #6
  br label %46

12:                                               ; preds = %8
  %13 = load i64, ptr %4, align 8, !tbaa !71
  %14 = icmp eq i64 %13, 3
  br i1 %14, label %15, label %18

15:                                               ; preds = %12
  %16 = call i32 @EVP_PKEY_can_sign(ptr noundef nonnull %5) #6
  %.not = icmp eq i32 %16, 0
  br i1 %.not, label %17, label %._crit_edge

._crit_edge:                                      ; preds = %15
  %.pre = load i64, ptr %4, align 8, !tbaa !71
  br label %18

17:                                               ; preds = %15
  call void @ERR_new() #6
  call void @ERR_set_debug(ptr noundef nonnull @.str, i32 noundef 273, ptr noundef nonnull @__func__.ssl_set_cert) #6
  call void (i32, i32, ptr, ...) @ERR_set_error(i32 noundef 20, i32 noundef 318, ptr noundef null) #6
  br label %46

18:                                               ; preds = %._crit_edge, %12
  %19 = phi i64 [ %.pre, %._crit_edge ], [ %13, %12 ]
  %20 = getelementptr inbounds nuw i8, ptr %0, i64 32
  %21 = load ptr, ptr %20, align 8, !tbaa !72
  %22 = getelementptr inbounds nuw %struct.cert_pkey_st, ptr %21, i64 %19, i32 1
  %23 = load ptr, ptr %22, align 8, !tbaa !76
  %.not20 = icmp eq ptr %23, null
  br i1 %.not20, label %37, label %24

24:                                               ; preds = %18
  %25 = call i32 @EVP_PKEY_copy_parameters(ptr noundef nonnull %5, ptr noundef nonnull %23) #6
  call void @ERR_clear_error() #6
  %26 = load ptr, ptr %20, align 8, !tbaa !72
  %27 = load i64, ptr %4, align 8, !tbaa !71
  %28 = getelementptr inbounds nuw %struct.cert_pkey_st, ptr %26, i64 %27, i32 1
  %29 = load ptr, ptr %28, align 8, !tbaa !76
  %30 = call i32 @X509_check_private_key(ptr noundef nonnull %1, ptr noundef %29) #6
  %.not21 = icmp eq i32 %30, 0
  %.pre23 = load ptr, ptr %20, align 8, !tbaa !72
  %.pre25 = load i64, ptr %4, align 8, !tbaa !71
  br i1 %.not21, label %31, label %37

31:                                               ; preds = %24
  %32 = getelementptr inbounds nuw %struct.cert_pkey_st, ptr %.pre23, i64 %.pre25, i32 1
  %33 = load ptr, ptr %32, align 8, !tbaa !76
  call void @EVP_PKEY_free(ptr noundef %33) #6
  %34 = load ptr, ptr %20, align 8, !tbaa !72
  %35 = load i64, ptr %4, align 8, !tbaa !71
  %36 = getelementptr inbounds nuw %struct.cert_pkey_st, ptr %34, i64 %35, i32 1
  store ptr null, ptr %36, align 8, !tbaa !76
  call void @ERR_clear_error() #6
  %.pre22 = load ptr, ptr %20, align 8, !tbaa !72
  %.pre24 = load i64, ptr %4, align 8, !tbaa !71
  br label %37

37:                                               ; preds = %24, %31, %18
  %38 = phi i64 [ %.pre25, %24 ], [ %.pre24, %31 ], [ %19, %18 ]
  %39 = phi ptr [ %.pre23, %24 ], [ %.pre22, %31 ], [ %21, %18 ]
  %40 = getelementptr inbounds nuw %struct.cert_pkey_st, ptr %39, i64 %38
  %41 = load ptr, ptr %40, align 8, !tbaa !78
  call void @X509_free(ptr noundef %41) #6
  %42 = call i32 @X509_up_ref(ptr noundef nonnull %1) #6
  %43 = load ptr, ptr %20, align 8, !tbaa !72
  %44 = load i64, ptr %4, align 8, !tbaa !71
  %45 = getelementptr inbounds nuw %struct.cert_pkey_st, ptr %43, i64 %44
  store ptr %1, ptr %45, align 8, !tbaa !78
  store ptr %45, ptr %0, align 8, !tbaa !79
  br label %46

46:                                               ; preds = %37, %17, %11, %7
  %.0 = phi i32 [ 0, %7 ], [ 0, %11 ], [ 1, %37 ], [ 0, %17 ]
  call void @llvm.lifetime.end.p0(i64 8, ptr nonnull %4) #6
  ret i32 %.0
}